target datalayout = "e-m:e-p270:32:32-p271:32:32-p272:64:64-i64:64-i128:128-f80:128-n8:16:32:64-S128"
target triple = "x86_64-pc-linux-gnu"

%struct.dh_st = type { i32, i32, %struct.ffc_params_st, i32, ptr, ptr, i32, ptr, %struct.CRYPTO_REF_COUNT, %struct.crypto_ex_data_st, ptr, ptr, ptr, ptr, i64 }
%struct.ffc_params_st = type { ptr, ptr, ptr, ptr, ptr, i64, i32, i32, i32, i32, i32, ptr, ptr, i32 }
%struct.CRYPTO_REF_COUNT = type { i32 }
%struct.crypto_ex_data_st = type { ptr, ptr }

@.str.4 = private unnamed_addr constant [15 x i8] c"DH Private-Key\00", align 1
@.str.5 = private unnamed_addr constant [14 x i8] c"DH Public-Key\00", align 1
@.str.6 = private unnamed_addr constant [14 x i8] c"DH Parameters\00", align 1
@.str.7 = private unnamed_addr constant [14 x i8] c"%s: (%d bit)\0A\00", align 1
@.str.8 = private unnamed_addr constant [13 x i8] c"private-key:\00", align 1
@.str.9 = private unnamed_addr constant [12 x i8] c"public-key:\00", align 1
@.str.10 = private unnamed_addr constant [37 x i8] c"recommended-private-length: %d bits\0A\00", align 1
@.str.11 = private unnamed_addr constant [32 x i8] c"../openssl/crypto/dh/dh_ameth.c\00", align 1
@__func__.do_dh_print = private unnamed_addr constant [12 x i8] c"do_dh_print\00", align 1

; Function Attrs: nounwind uwtable
define internal i32 @do_dh_print(ptr noundef %0, ptr noundef %1, i32 noundef %2, i32 noundef %3) #0 {
  %5 = alloca i32, align 4
  %6 = alloca ptr, align 8
  %7 = alloca ptr, align 8
  %8 = alloca i32, align 4
  %9 = alloca i32, align 4
  %10 = alloca i32, align 4
  %11 = alloca ptr, align 8
  %12 = alloca ptr, align 8
  %13 = alloca ptr, align 8
  %14 = alloca i32, align 4
  store ptr %0, ptr %6, align 8, !tbaa !25
  store ptr %1, ptr %7, align 8, !tbaa !3
  store i32 %2, ptr %8, align 4, !tbaa !8
  store i32 %3, ptr %9, align 4, !tbaa !8
  call void @llvm.lifetime.start.p0(i64 4, ptr %10) #4
  store i32 524295, ptr %10, align 4, !tbaa !8
  call void @llvm.lifetime.start.p0(i64 8, ptr %11) #4
  store ptr null, ptr %11, align 8, !tbaa !27
  call void @llvm.lifetime.start.p0(i64 8, ptr %12) #4
  call void @llvm.lifetime.start.p0(i64 8, ptr %13) #4
  %15 = load i32, ptr %9, align 4, !tbaa !8
  %16 = icmp eq i32 %15, 2
  br i1 %16, label %17, label %21

17:                                               ; preds = %4
  %18 = load ptr, ptr %7, align 8, !tbaa !3
  %19 = getelementptr inbounds nuw %struct.dh_st, ptr %18, i32 0, i32 5
  %20 = load ptr, ptr %19, align 8, !tbaa !28
  store ptr %20, ptr %12, align 8, !tbaa !29
  br label %22

21:                                               ; preds = %4
  store ptr null, ptr %12, align 8, !tbaa !29
  br label %22

22:                                               ; preds = %21, %17
  %23 = load i32, ptr %9, align 4, !tbaa !8
  %24 = icmp sgt i32 %23, 0
  br i1 %24, label %25, label %29

25:                                               ; preds = %22
  %26 = load ptr, ptr %7, align 8, !tbaa !3
  %27 = getelementptr inbounds nuw %struct.dh_st, ptr %26, i32 0, i32 4
  %28 = load ptr, ptr %27, align 8, !tbaa !30
  store ptr %28, ptr %13, align 8, !tbaa !29
  br label %30

29:                                               ; preds = %22
  store ptr null, ptr %13, align 8, !tbaa !29
  br label %30

30:                                               ; preds = %29, %25
  %31 = load ptr, ptr %7, align 8, !tbaa !3
  %32 = getelementptr inbounds nuw %struct.dh_st, ptr %31, i32 0, i32 2
  %33 = getelementptr inbounds nuw %struct.ffc_params_st, ptr %32, i32 0, i32 0
  %34 = load ptr, ptr %33, align 8, !tbaa !31
  %35 = icmp eq ptr %34, null
  br i1 %35, label %48, label %36

36:                                               ; preds = %30
  %37 = load i32, ptr %9, align 4, !tbaa !8
  %38 = icmp eq i32 %37, 2
  br i1 %38, label %39, label %42

39:                                               ; preds = %36
  %40 = load ptr, ptr %12, align 8, !tbaa !29
  %41 = icmp eq ptr %40, null
  br i1 %41, label %48, label %42

42:                                               ; preds = %39, %36
  %43 = load i32, ptr %9, align 4, !tbaa !8
  %44 = icmp sgt i32 %43, 0
  br i1 %44, label %45, label %49

45:                                               ; preds = %42
  %46 = load ptr, ptr %13, align 8, !tbaa !29
  %47 = icmp eq ptr %46, null
  br i1 %47, label %48, label %49

48:                                               ; preds = %45, %39, %30
  store i32 786690, ptr %10, align 4, !tbaa !8
  br label %116

49:                                               ; preds = %45, %42
  %50 = load i32, ptr %9, align 4, !tbaa !8
  %51 = icmp eq i32 %50, 2
  br i1 %51, label %52, label %53

52:                                               ; preds = %49
  store ptr @.str.4, ptr %11, align 8, !tbaa !27
  br label %59

53:                                               ; preds = %49
  %54 = load i32, ptr %9, align 4, !tbaa !8
  %55 = icmp eq i32 %54, 1
  br i1 %55, label %56, label %57

56:                                               ; preds = %53
  store ptr @.str.5, ptr %11, align 8, !tbaa !27
  br label %58

57:                                               ; preds = %53
  store ptr @.str.6, ptr %11, align 8, !tbaa !27
  br label %58

58:                                               ; preds = %57, %56
  br label %59

59:                                               ; preds = %58, %52
  %60 = load ptr, ptr %6, align 8, !tbaa !25
  %61 = load i32, ptr %8, align 4, !tbaa !8
  %62 = call i32 @BIO_indent(ptr noundef %60, i32 noundef %61, i32 noundef 128)
  %63 = icmp ne i32 %62, 0
  br i1 %63, label %64, label %71

64:                                               ; preds = %59
  %65 = load ptr, ptr %6, align 8, !tbaa !25
  %66 = load ptr, ptr %11, align 8, !tbaa !27
  %67 = load ptr, ptr %7, align 8, !tbaa !3
  %68 = call i32 @DH_bits(ptr noundef %67)
  %69 = call i32 (ptr, ptr, ...) @BIO_printf(ptr noundef %65, ptr noundef @.str.7, ptr noundef %66, i32 noundef %68)
  %70 = icmp sle i32 %69, 0
  br i1 %70, label %71, label %72

71:                                               ; preds = %64, %59
  br label %116

72:                                               ; preds = %64
  %73 = load i32, ptr %8, align 4, !tbaa !8
  %74 = add nsw i32 %73, 4
  store i32 %74, ptr %8, align 4, !tbaa !8
  %75 = load ptr, ptr %6, align 8, !tbaa !25
  %76 = load ptr, ptr %12, align 8, !tbaa !29
  %77 = load i32, ptr %8, align 4, !tbaa !8
  %78 = call i32 @ASN1_bn_print(ptr noundef %75, ptr noundef @.str.8, ptr noundef %76, ptr noundef null, i32 noundef %77)
  %79 = icmp ne i32 %78, 0
  br i1 %79, label %81, label %80

80:                                               ; preds = %72
  br label %116

81:                                               ; preds = %72
  %82 = load ptr, ptr %6, align 8, !tbaa !25
  %83 = load ptr, ptr %13, align 8, !tbaa !29
  %84 = load i32, ptr %8, align 4, !tbaa !8
  %85 = call i32 @ASN1_bn_print(ptr noundef %82, ptr noundef @.str.9, ptr noundef %83, ptr noundef null, i32 noundef %84)
  %86 = icmp ne i32 %85, 0
  br i1 %86, label %88, label %87

87:                                               ; preds = %81
  br label %116

88:                                               ; preds = %81
  %89 = load ptr, ptr %6, align 8, !tbaa !25
  %90 = load ptr, ptr %7, align 8, !tbaa !3
  %91 = getelementptr inbounds nuw %struct.dh_st, ptr %90, i32 0, i32 2
  %92 = load i32, ptr %8, align 4, !tbaa !8
  %93 = call i32 @ossl_ffc_params_print(ptr noundef %89, ptr noundef %91, i32 noundef %92)
  %94 = icmp ne i32 %93, 0
  br i1 %94, label %96, label %95

95:                                               ; preds = %88
  br label %116

96:                                               ; preds = %88
  %97 = load ptr, ptr %7, align 8, !tbaa !3
  %98 = getelementptr inbounds nuw %struct.dh_st, ptr %97, i32 0, i32 3
  %99 = load i32, ptr %98, align 8, !tbaa !23
  %100 = icmp ne i32 %99, 0
  br i1 %100, label %101, label %115

101:                                              ; preds = %96
  %102 = load ptr, ptr %6, align 8, !tbaa !25
  %103 = load i32, ptr %8, align 4, !tbaa !8
  %104 = call i32 @BIO_indent(ptr noundef %102, i32 noundef %103, i32 noundef 128)
  %105 = icmp ne i32 %104, 0
  br i1 %105, label %106, label %113

106:                                              ; preds = %101
  %107 = load ptr, ptr %6, align 8, !tbaa !25
  %108 = load ptr, ptr %7, align 8, !tbaa !3
  %109 = getelementptr inbounds nuw %struct.dh_st, ptr %108, i32 0, i32 3
  %110 = load i32, ptr %109, align 8, !tbaa !23
  %111 = call i32 (ptr, ptr, ...) @BIO_printf(ptr noundef %107, ptr noundef @.str.10, i32 noundef %110)
  %112 = icmp sle i32 %111, 0
  br i1 %112, label %113, label %114

113:                                              ; preds = %106, %101
  br label %116

114:                                              ; preds = %106
  br label %115

115:                                              ; preds = %114, %96
  store i32 1, ptr %5, align 4
  store i32 1, ptr %14, align 4
  br label %118

116:                                              ; preds = %113, %95, %87, %80, %71, %48
  call void @ERR_new()
  call void @ERR_set_debug(ptr noundef @.str.11, i32 noundef 296, ptr noundef @__func__.do_dh_print)
  %117 = load i32, ptr %10, align 4, !tbaa !8
  call void (i32, i32, ptr, ...) @ERR_set_error(i32 noundef 5, i32 noundef %117, ptr noundef null)
  store i32 0, ptr %5, align 4
  store i32 1, ptr %14, align 4
  br label %118

118:                                              ; preds = %116, %115
  call void @llvm.lifetime.end.p0(i64 8, ptr %13) #4
  call void @llvm.lifetime.end.p0(i64 8, ptr %12) #4
  call void @llvm.lifetime.end.p0(i64 8, ptr %11) #4
  call void @llvm.lifetime.end.p0(i64 4, ptr %10) #4
  %119 = load i32, ptr %5, align 4
  ret i32 %119
}