; Function Attrs: nounwind uwtable
define internal fastcc range(i32 0, 2) i32 @do_dh_print(ptr noundef %0, ptr noundef %1, i32 noundef %2, i32 noundef range(i32 0, 3) %3) unnamed_addr #0 {
  %5 = icmp eq i32 %3, 2
  br i1 %5, label %.thread, label %8

.thread:                                          ; preds = %4
  %6 = getelementptr inbounds nuw i8, ptr %1, i64 120
  %7 = load ptr, ptr %6, align 8, !tbaa !22
  br label %9

8:                                                ; preds = %4
  %.not50 = icmp eq i32 %3, 0
  br i1 %.not50, label %12, label %9

9:                                                ; preds = %.thread, %8
  %.03549 = phi ptr [ %7, %.thread ], [ null, %8 ]
  %10 = getelementptr inbounds nuw i8, ptr %1, i64 112
  %11 = load ptr, ptr %10, align 8, !tbaa !23
  br label %12

12:                                               ; preds = %8, %9
  %13 = phi i1 [ true, %9 ], [ false, %8 ]
  %.03548 = phi ptr [ %.03549, %9 ], [ null, %8 ]
  %.0 = phi ptr [ %11, %9 ], [ null, %8 ]
  %14 = getelementptr inbounds nuw i8, ptr %1, i64 8
  %15 = load ptr, ptr %14, align 8, !tbaa !24
  %16 = icmp eq ptr %15, null
  %17 = icmp eq ptr %.03548, null
  %or.cond = select i1 %5, i1 %17, i1 false
  %or.cond45 = select i1 %16, i1 true, i1 %or.cond
  %18 = icmp eq ptr %.0, null
  %or.cond3 = select i1 %13, i1 %18, i1 false
  %or.cond46 = select i1 %or.cond45, i1 true, i1 %or.cond3
  br i1 %or.cond46, label %42, label %19

19:                                               ; preds = %12
  %20 = tail call i32 @BIO_indent(ptr noundef %0, i32 noundef %2, i32 noundef 128) #5
  %.not = icmp eq i32 %20, 0
  br i1 %.not, label %42, label %21

21:                                               ; preds = %19
  %22 = icmp eq i32 %3, 1
  %.str.5..str.6 = select i1 %22, ptr @.str.5, ptr @.str.6
  %.036 = select i1 %5, ptr @.str.4, ptr %.str.5..str.6
  %23 = tail call i32 @DH_bits(ptr noundef nonnull %1) #5
  %24 = tail call i32 (ptr, ptr, ...) @BIO_printf(ptr noundef %0, ptr noundef nonnull @.str.7, ptr noundef nonnull %.036, i32 noundef %23) #5
  %25 = icmp slt i32 %24, 1
  br i1 %25, label %42, label %26

26:                                               ; preds = %21
  %27 = add nsw i32 %2, 4
  %28 = tail call i32 @ASN1_bn_print(ptr noundef %0, ptr noundef nonnull @.str.8, ptr noundef %.03548, ptr noundef null, i32 noundef %27) #5
  %.not40 = icmp eq i32 %28, 0
  br i1 %.not40, label %42, label %29

29:                                               ; preds = %26
  %30 = tail call i32 @ASN1_bn_print(ptr noundef %0, ptr noundef nonnull @.str.9, ptr noundef %.0, ptr noundef null, i32 noundef %27) #5
  %.not41 = icmp eq i32 %30, 0
  br i1 %.not41, label %42, label %31

31:                                               ; preds = %29
  %32 = tail call i32 @ossl_ffc_params_print(ptr noundef %0, ptr noundef nonnull %14, i32 noundef %27) #5
  %.not42 = icmp eq i32 %32, 0
  br i1 %.not42, label %42, label %33

33:                                               ; preds = %31
  %34 = getelementptr inbounds nuw i8, ptr %1, i64 104
  %35 = load i32, ptr %34, align 8, !tbaa !20
  %.not43 = icmp eq i32 %35, 0
  br i1 %.not43, label %43, label %36

36:                                               ; preds = %33
  %37 = tail call i32 @BIO_indent(ptr noundef %0, i32 noundef %27, i32 noundef 128) #5
  %.not44 = icmp eq i32 %37, 0
  br i1 %.not44, label %42, label %38

38:                                               ; preds = %36
  %39 = load i32, ptr %34, align 8, !tbaa !20
  %40 = tail call i32 (ptr, ptr, ...) @BIO_printf(ptr noundef %0, ptr noundef nonnull @.str.10, i32 noundef %39) #5
  %41 = icmp slt i32 %40, 1
  br i1 %41, label %42, label %43

42:                                               ; preds = %12, %36, %38, %31, %29, %26, %19, %21
  %.037 = phi i32 [ 524295, %21 ], [ 524295, %38 ], [ 524295, %36 ], [ 524295, %31 ], [ 524295, %29 ], [ 524295, %26 ], [ 524295, %19 ], [ 786690, %12 ]
  tail call void @ERR_new() #5
  tail call void @ERR_set_debug(ptr noundef nonnull @.str.11, i32 noundef 296, ptr noundef nonnull @__func__.do_dh_print) #5
  tail call void (i32, i32, ptr, ...) @ERR_set_error(i32 noundef 5, i32 noundef %.037, ptr noundef null) #5
  br label %43

43:                                               ; preds = %33, %38, %42
  %.038 = phi i32 [ 0, %42 ], [ 1, %38 ], [ 1, %33 ]
  ret i32 %.038
}